target datalayout = "e-m:e-p270:32:32-p271:32:32-p272:64:64-i64:64-i128:128-f80:128-n8:16:32:64-S128"
target triple = "x86_64-pc-linux-gnu"

%struct._zval_struct = type { %union._zend_value, %union.anon, %union.anon.2 }
%union._zend_value = type { i64 }
%union.anon = type { i32 }
%union.anon.2 = type { i32 }
%struct._zend_execute_data = type { ptr, ptr, ptr, ptr, %struct._zval_struct, ptr, ptr, ptr, ptr }

; Function Attrs: nounwind uwtable
define hidden void @zif_is_iterable(ptr noundef %0, ptr noundef %1) #0 {
  %3 = alloca ptr, align 8
  %4 = alloca ptr, align 8
  %5 = alloca ptr, align 8
  %6 = alloca i8, align 1
  %7 = alloca ptr, align 8
  %8 = alloca ptr, align 8
  %9 = alloca ptr, align 8
  %10 = alloca i32, align 4
  %11 = alloca i32, align 4
  %12 = alloca i32, align 4
  %13 = alloca i32, align 4
  %14 = alloca i32, align 4
  %15 = alloca ptr, align 8
  %16 = alloca ptr, align 8
  %17 = alloca i32, align 4
  %18 = alloca ptr, align 8
  %19 = alloca i8, align 1
  %20 = alloca i8, align 1
  %21 = alloca i32, align 4
  store ptr %0, ptr %7, align 8
  store ptr %1, ptr %8, align 8
  br label %22

22:                                               ; preds = %2
  store i32 0, ptr %10, align 4
  store i32 1, ptr %11, align 4
  store i32 1, ptr %12, align 4
  %23 = load ptr, ptr %7, align 8
  %24 = getelementptr inbounds %struct._zend_execute_data, ptr %23, i32 0, i32 4
  %25 = getelementptr inbounds %struct._zval_struct, ptr %24, i32 0, i32 2
  %26 = load i32, ptr %25, align 4
  store i32 %26, ptr %13, align 4
  store i32 0, ptr %14, align 4
  store ptr null, ptr %16, align 8
  store i32 0, ptr %17, align 4
  store ptr null, ptr %18, align 8
  store i8 0, ptr %19, align 1
  store i8 0, ptr %20, align 1
  store i32 0, ptr %21, align 4
  br label %27

27:                                               ; preds = %22
  %28 = load i32, ptr %13, align 4
  %29 = load i32, ptr %11, align 4
  %30 = icmp ult i32 %28, %29
  %31 = xor i1 %30, true
  %32 = xor i1 %31, true
  %33 = zext i1 %32 to i32
  %34 = sext i32 %33 to i64
  %35 = icmp ne i64 %34, 0
  br i1 %35, label %45, label %36

36:                                               ; preds = %27
  %37 = load i32, ptr %13, align 4
  %38 = load i32, ptr %12, align 4
  %39 = icmp ugt i32 %37, %38
  %40 = xor i1 %39, true
  %41 = xor i1 %40, true
  %42 = zext i1 %41 to i32
  %43 = sext i32 %42 to i64
  %44 = icmp ne i64 %43, 0
  br i1 %44, label %45, label %48

45:                                               ; preds = %36, %27
  %46 = load i32, ptr %11, align 4
  %47 = load i32, ptr %12, align 4
  call void @zend_wrong_parameters_count_error(i32 noundef %46, i32 noundef %47)
  store i32 1, ptr %21, align 4
  br label %114

48:                                               ; preds = %36
  %49 = load ptr, ptr %7, align 8
  %50 = getelementptr inbounds %struct._zval_struct, ptr %49, i64 4
  store ptr %50, ptr %15, align 8
  %51 = load i32, ptr %14, align 4
  %52 = add i32 %51, 1
  store i32 %52, ptr %14, align 4
  %53 = load i32, ptr %14, align 4
  %54 = load i32, ptr %11, align 4
  %55 = icmp ule i32 %53, %54
  br i1 %55, label %61, label %56

56:                                               ; preds = %48
  %57 = load i8, ptr %20, align 1
  %58 = trunc i8 %57 to i1
  %59 = zext i1 %58 to i32
  %60 = icmp eq i32 %59, 1
  br label %61

61:                                               ; preds = %56, %48
  %62 = phi i1 [ true, %48 ], [ %60, %56 ]
  call void @llvm.assume(i1 %62)
  %63 = load i32, ptr %14, align 4
  %64 = load i32, ptr %11, align 4
  %65 = icmp ugt i32 %63, %64
  br i1 %65, label %71, label %66

66:                                               ; preds = %61
  %67 = load i8, ptr %20, align 1
  %68 = trunc i8 %67 to i1
  %69 = zext i1 %68 to i32
  %70 = icmp eq i32 %69, 0
  br label %71

71:                                               ; preds = %66, %61
  %72 = phi i1 [ true, %61 ], [ %70, %66 ]
  call void @llvm.assume(i1 %72)
  %73 = load i8, ptr %20, align 1
  %74 = trunc i8 %73 to i1
  br i1 %74, label %75, label %86

75:                                               ; preds = %71
  %76 = load i32, ptr %14, align 4
  %77 = load i32, ptr %13, align 4
  %78 = icmp ugt i32 %76, %77
  %79 = xor i1 %78, true
  %80 = xor i1 %79, true
  %81 = zext i1 %80 to i32
  %82 = sext i32 %81 to i64
  %83 = icmp ne i64 %82, 0
  br i1 %83, label %84, label %85

84:                                               ; preds = %75
  br label %114

85:                                               ; preds = %75
  br label %86

86:                                               ; preds = %85, %71
  %87 = load ptr, ptr %15, align 8
  %88 = getelementptr inbounds %struct._zval_struct, ptr %87, i32 1
  store ptr %88, ptr %15, align 8
  %89 = load ptr, ptr %15, align 8
  store ptr %89, ptr %16, align 8
  %90 = load ptr, ptr %16, align 8
  store ptr %90, ptr %4, align 8
  store ptr %9, ptr %5, align 8
  store i8 0, ptr %6, align 1
  %91 = load i8, ptr %6, align 1
  %92 = trunc i8 %91 to i1
  br i1 %92, label %93, label %101

93:                                               ; preds = %86
  %94 = load ptr, ptr %4, align 8
  store ptr %94, ptr %3, align 8
  %95 = load ptr, ptr %3, align 8
  %96 = getelementptr inbounds %struct._zval_struct, ptr %95, i32 0, i32 1
  %97 = load i8, ptr %96, align 8
  %98 = zext i8 %97 to i32
  %99 = icmp eq i32 %98, 1
  br i1 %99, label %100, label %101

100:                                              ; preds = %93
  br label %103

101:                                              ; preds = %93, %86
  %102 = load ptr, ptr %4, align 8
  br label %103

103:                                              ; preds = %101, %100
  %104 = phi ptr [ null, %100 ], [ %102, %101 ]
  %105 = load ptr, ptr %5, align 8
  store ptr %104, ptr %105, align 8
  %106 = load i32, ptr %14, align 4
  %107 = load i32, ptr %12, align 4
  %108 = icmp eq i32 %106, %107
  br i1 %108, label %112, label %109

109:                                              ; preds = %103
  %110 = load i32, ptr %12, align 4
  %111 = icmp eq i32 %110, -1
  br label %112

112:                                              ; preds = %109, %103
  %113 = phi i1 [ true, %103 ], [ %111, %109 ]
  call void @llvm.assume(i1 %113)
  br label %114

114:                                              ; preds = %112, %84, %45
  %115 = load i32, ptr %21, align 4
  %116 = icmp ne i32 %115, 0
  %117 = xor i1 %116, true
  %118 = xor i1 %117, true
  %119 = zext i1 %118 to i32
  %120 = sext i32 %119 to i64
  %121 = icmp ne i64 %120, 0
  br i1 %121, label %122, label %128

122:                                              ; preds = %114
  %123 = load i32, ptr %21, align 4
  %124 = load i32, ptr %14, align 4
  %125 = load ptr, ptr %18, align 8
  %126 = load i32, ptr %17, align 4
  %127 = load ptr, ptr %16, align 8
  call void @zend_wrong_parameter_error(i32 noundef %123, i32 noundef %124, ptr noundef %125, i32 noundef %126, ptr noundef %127)
  br label %138

128:                                              ; preds = %114
  br label %129

129:                                              ; preds = %128
  br label %130

130:                                              ; preds = %129
  br label %131

131:                                              ; preds = %130
  %132 = load ptr, ptr %9, align 8
  %133 = call zeroext i1 @zend_is_iterable(ptr noundef %132)
  %134 = select i1 %133, i32 3, i32 2
  %135 = load ptr, ptr %8, align 8
  %136 = getelementptr inbounds %struct._zval_struct, ptr %135, i32 0, i32 1
  store i32 %134, ptr %136, align 8
  br label %137

137:                                              ; preds = %131
  br label %138

138:                                              ; preds = %137, %122
  ret void
}